target datalayout = "e-m:e-p270:32:32-p271:32:32-p272:64:64-i64:64-i128:128-f80:128-n8:16:32:64-S128"
target triple = "x86_64-pc-linux-gnu"

%struct.ItemPointerData = type { %struct.BlockIdData, i16 }
%struct.BlockIdData = type { i16, i16 }
%struct.TupleTableSlot = type { i32, i16, i16, ptr, ptr, ptr, ptr, ptr, %struct.ItemPointerData, i32 }
%struct.nameData = type { [64 x i8] }
%struct.StringInfoData = type { ptr, i32, i32, i32 }
%struct.TupleDescData = type { i32, i32, i32, i32, ptr, [0 x %struct.CompactAttribute] }
%struct.CompactAttribute = type { i32, i16, i8, i8, i8, i8, i8, i8, i8 }
%struct.FormData_pg_attribute = type { i32, %struct.nameData, i32, i16, i16, i32, i16, i8, i8, i8, i8, i8, i8, i8, i8, i8, i8, i8, i16, i32 }

@.str.26 = private unnamed_addr constant [3 x i8] c", \00", align 1
@.str.27 = private unnamed_addr constant [8 x i8] c"virtual\00", align 1
@.str.28 = private unnamed_addr constant [5 x i8] c"null\00", align 1
@.str.29 = private unnamed_addr constant [4 x i8] c"...\00", align 1
@.str.30 = private unnamed_addr constant [5 x i8] c") = \00", align 1

; Function Attrs: inlinehint nounwind uwtable
define internal void @slot_getsomeattrs(ptr noundef %0, i32 noundef %1) #3 {
  %3 = alloca ptr, align 8
  %4 = alloca i32, align 4
  store ptr %0, ptr %3, align 8
  store i32 %1, ptr %4, align 4
  %5 = load ptr, ptr %3, align 8
  %6 = getelementptr inbounds nuw %struct.TupleTableSlot, ptr %5, i32 0, i32 2
  %7 = load i16, ptr %6, align 2
  %8 = sext i16 %7 to i32
  %9 = load i32, ptr %4, align 4
  %10 = icmp slt i32 %8, %9
  br i1 %10, label %11, label %14

11:                                               ; preds = %2
  %12 = load ptr, ptr %3, align 8
  %13 = load i32, ptr %4, align 4
  call void @slot_getsomeattrs_int(ptr noundef %12, i32 noundef %13)
  br label %14

14:                                               ; preds = %11, %2
  ret void
}

; Function Attrs: inlinehint nounwind uwtable
define internal ptr @TupleDescAttr(ptr noundef %0, i32 noundef %1) #3 {
  %3 = alloca ptr, align 8
  %4 = alloca i32, align 4
  %5 = alloca ptr, align 8
  store ptr %0, ptr %3, align 8
  store i32 %1, ptr %4, align 4
  call void @llvm.lifetime.start.p0(i64 8, ptr %5) #9
  %6 = load ptr, ptr %3, align 8
  %7 = load ptr, ptr %3, align 8
  %8 = getelementptr inbounds nuw %struct.TupleDescData, ptr %7, i32 0, i32 0
  %9 = load i32, ptr %8, align 8
  %10 = sext i32 %9 to i64
  %11 = mul i64 %10, 16
  %12 = add i64 24, %11
  %13 = getelementptr inbounds nuw i8, ptr %6, i64 %12
  store ptr %13, ptr %5, align 8
  %14 = load ptr, ptr %5, align 8
  %15 = load i32, ptr %4, align 4
  %16 = sext i32 %15 to i64
  %17 = getelementptr inbounds %struct.FormData_pg_attribute, ptr %14, i64 %16
  call void @llvm.lifetime.end.p0(i64 8, ptr %5) #9
  ret ptr %17
}

; Function Attrs: inlinehint nounwind uwtable
define internal void @slot_getallattrs(ptr noundef %0) #3 {
  %2 = alloca ptr, align 8
  store ptr %0, ptr %2, align 8
  %3 = load ptr, ptr %2, align 8
  %4 = load ptr, ptr %2, align 8
  %5 = getelementptr inbounds nuw %struct.TupleTableSlot, ptr %4, i32 0, i32 4
  %6 = load ptr, ptr %5, align 8
  %7 = getelementptr inbounds nuw %struct.TupleDescData, ptr %6, i32 0, i32 0
  %8 = load i32, ptr %7, align 8
  call void @slot_getsomeattrs(ptr noundef %3, i32 noundef %8)
  ret void
}

; Function Attrs: nounwind uwtable
define dso_local ptr @ExecBuildSlotValueDescription(i32 noundef %0, ptr noundef %1, ptr noundef %2, ptr noundef %3, i32 noundef %4) #0 {
  %6 = alloca ptr, align 8
  %7 = alloca i32, align 4
  %8 = alloca ptr, align 8
  %9 = alloca ptr, align 8
  %10 = alloca ptr, align 8
  %11 = alloca i32, align 4
  %12 = alloca %struct.StringInfoData, align 8
  %13 = alloca %struct.StringInfoData, align 8
  %14 = alloca i8, align 1
  %15 = alloca i8, align 1
  %16 = alloca i32, align 4
  %17 = alloca i32, align 4
  %18 = alloca i8, align 1
  %19 = alloca i8, align 1
  %20 = alloca i32, align 4
  %21 = alloca i8, align 1
  %22 = alloca ptr, align 8
  %23 = alloca i32, align 4
  %24 = alloca ptr, align 8
  %25 = alloca i32, align 4
  %26 = alloca i8, align 1
  store i32 %0, ptr %7, align 4
  store ptr %1, ptr %8, align 8
  store ptr %2, ptr %9, align 8
  store ptr %3, ptr %10, align 8
  store i32 %4, ptr %11, align 4
  call void @llvm.lifetime.start.p0(i64 24, ptr %12) #9
  call void @llvm.lifetime.start.p0(i64 24, ptr %13) #9
  call void @llvm.lifetime.start.p0(i64 1, ptr %14) #9
  store i8 0, ptr %14, align 1
  call void @llvm.lifetime.start.p0(i64 1, ptr %15) #9
  store i8 0, ptr %15, align 1
  call void @llvm.lifetime.start.p0(i64 4, ptr %16) #9
  call void @llvm.lifetime.start.p0(i64 4, ptr %17) #9
  call void @llvm.lifetime.start.p0(i64 1, ptr %18) #9
  store i8 0, ptr %18, align 1
  call void @llvm.lifetime.start.p0(i64 1, ptr %19) #9
  store i8 0, ptr %19, align 1
  %27 = load i32, ptr %7, align 4
  %28 = call i32 @check_enable_rls(i32 noundef %27, i32 noundef 0, i1 noundef zeroext true)
  %29 = icmp eq i32 %28, 2
  br i1 %29, label %30, label %31

30:                                               ; preds = %5
  store ptr null, ptr %6, align 8
  store i32 1, ptr %20, align 4
  br label %171

31:                                               ; preds = %5
  call void @initStringInfo(ptr noundef %12)
  call void @appendStringInfoChar(ptr noundef %12, i8 noundef signext 40)
  %32 = load i32, ptr %7, align 4
  %33 = call i32 @GetUserId()
  %34 = call i32 @pg_class_aclcheck(i32 noundef %32, i32 noundef %33, i64 noundef 2)
  store i32 %34, ptr %17, align 4
  %35 = load i32, ptr %17, align 4
  %36 = icmp ne i32 %35, 0
  br i1 %36, label %37, label %38

37:                                               ; preds = %31
  call void @initStringInfo(ptr noundef %13)
  call void @appendStringInfoChar(ptr noundef %13, i8 noundef signext 40)
  br label %39

38:                                               ; preds = %31
  store i8 1, ptr %19, align 1
  store i8 1, ptr %18, align 1
  br label %39

39:                                               ; preds = %38, %37
  %40 = load ptr, ptr %8, align 8
  call void @slot_getallattrs(ptr noundef %40)
  store i32 0, ptr %16, align 4
  br label %41

41:                                               ; preds = %151, %39
  %42 = load i32, ptr %16, align 4
  %43 = load ptr, ptr %9, align 8
  %44 = getelementptr inbounds nuw %struct.TupleDescData, ptr %43, i32 0, i32 0
  %45 = load i32, ptr %44, align 8
  %46 = icmp slt i32 %42, %45
  br i1 %46, label %47, label %154

47:                                               ; preds = %41
  call void @llvm.lifetime.start.p0(i64 1, ptr %21) #9
  store i8 0, ptr %21, align 1
  call void @llvm.lifetime.start.p0(i64 8, ptr %22) #9
  call void @llvm.lifetime.start.p0(i64 4, ptr %23) #9
  call void @llvm.lifetime.start.p0(i64 8, ptr %24) #9
  %48 = load ptr, ptr %9, align 8
  %49 = load i32, ptr %16, align 4
  %50 = call ptr @TupleDescAttr(ptr noundef %48, i32 noundef %49)
  store ptr %50, ptr %24, align 8
  %51 = load ptr, ptr %24, align 8
  %52 = getelementptr inbounds nuw %struct.FormData_pg_attribute, ptr %51, i32 0, i32 16
  %53 = load i8, ptr %52, align 1, !range !4, !noundef !5
  %54 = trunc i8 %53 to i1
  br i1 %54, label %55, label %56

55:                                               ; preds = %47
  store i32 4, ptr %20, align 4
  br label %148

56:                                               ; preds = %47
  %57 = load i8, ptr %18, align 1, !range !4, !noundef !5
  %58 = trunc i8 %57 to i1
  br i1 %58, label %87, label %59

59:                                               ; preds = %56
  %60 = load i32, ptr %7, align 4
  %61 = load ptr, ptr %24, align 8
  %62 = getelementptr inbounds nuw %struct.FormData_pg_attribute, ptr %61, i32 0, i32 4
  %63 = load i16, ptr %62, align 2
  %64 = call i32 @GetUserId()
  %65 = call i32 @pg_attribute_aclcheck(i32 noundef %60, i16 noundef signext %63, i32 noundef %64, i64 noundef 2)
  store i32 %65, ptr %17, align 4
  %66 = load ptr, ptr %24, align 8
  %67 = getelementptr inbounds nuw %struct.FormData_pg_attribute, ptr %66, i32 0, i32 4
  %68 = load i16, ptr %67, align 2
  %69 = sext i16 %68 to i32
  %70 = sub i32 %69, -7
  %71 = load ptr, ptr %10, align 8
  %72 = call zeroext i1 @bms_is_member(i32 noundef %70, ptr noundef %71)
  br i1 %72, label %76, label %73

73:                                               ; preds = %59
  %74 = load i32, ptr %17, align 4
  %75 = icmp eq i32 %74, 0
  br i1 %75, label %76, label %86

76:                                               ; preds = %73, %59
  store i8 1, ptr %19, align 1
  store i8 1, ptr %21, align 1
  %77 = load i8, ptr %15, align 1, !range !4, !noundef !5
  %78 = trunc i8 %77 to i1
  br i1 %78, label %79, label %80

79:                                               ; preds = %76
  call void @appendStringInfoString(ptr noundef %13, ptr noundef @.str.26)
  br label %81

80:                                               ; preds = %76
  store i8 1, ptr %15, align 1
  br label %81

81:                                               ; preds = %80, %79
  %82 = load ptr, ptr %24, align 8
  %83 = getelementptr inbounds nuw %struct.FormData_pg_attribute, ptr %82, i32 0, i32 1
  %84 = getelementptr inbounds nuw %struct.nameData, ptr %83, i32 0, i32 0
  %85 = getelementptr inbounds [64 x i8], ptr %84, i64 0, i64 0
  call void @appendStringInfoString(ptr noundef %13, ptr noundef %85)
  br label %86

86:                                               ; preds = %81, %73
  br label %87

87:                                               ; preds = %86, %56
  %88 = load i8, ptr %18, align 1, !range !4, !noundef !5
  %89 = trunc i8 %88 to i1
  br i1 %89, label %93, label %90

90:                                               ; preds = %87
  %91 = load i8, ptr %21, align 1, !range !4, !noundef !5
  %92 = trunc i8 %91 to i1
  br i1 %92, label %93, label %147

93:                                               ; preds = %90, %87
  %94 = load ptr, ptr %24, align 8
  %95 = getelementptr inbounds nuw %struct.FormData_pg_attribute, ptr %94, i32 0, i32 15
  %96 = load i8, ptr %95, align 2
  %97 = sext i8 %96 to i32
  %98 = icmp eq i32 %97, 118
  br i1 %98, label %99, label %100

99:                                               ; preds = %93
  store ptr @.str.27, ptr %22, align 8
  br label %124

100:                                              ; preds = %93
  %101 = load ptr, ptr %8, align 8
  %102 = getelementptr inbounds nuw %struct.TupleTableSlot, ptr %101, i32 0, i32 6
  %103 = load ptr, ptr %102, align 8
  %104 = load i32, ptr %16, align 4
  %105 = sext i32 %104 to i64
  %106 = getelementptr inbounds i8, ptr %103, i64 %105
  %107 = load i8, ptr %106, align 1, !range !4, !noundef !5
  %108 = trunc i8 %107 to i1
  br i1 %108, label %109, label %110

109:                                              ; preds = %100
  store ptr @.str.28, ptr %22, align 8
  br label %123

110:                                              ; preds = %100
  call void @llvm.lifetime.start.p0(i64 4, ptr %25) #9
  call void @llvm.lifetime.start.p0(i64 1, ptr %26) #9
  %111 = load ptr, ptr %24, align 8
  %112 = getelementptr inbounds nuw %struct.FormData_pg_attribute, ptr %111, i32 0, i32 2
  %113 = load i32, ptr %112, align 4
  call void @getTypeOutputInfo(i32 noundef %113, ptr noundef %25, ptr noundef %26)
  %114 = load i32, ptr %25, align 4
  %115 = load ptr, ptr %8, align 8
  %116 = getelementptr inbounds nuw %struct.TupleTableSlot, ptr %115, i32 0, i32 5
  %117 = load ptr, ptr %116, align 8
  %118 = load i32, ptr %16, align 4
  %119 = sext i32 %118 to i64
  %120 = getelementptr inbounds i64, ptr %117, i64 %119
  %121 = load i64, ptr %120, align 8
  %122 = call ptr @OidOutputFunctionCall(i32 noundef %114, i64 noundef %121)
  store ptr %122, ptr %22, align 8
  call void @llvm.lifetime.end.p0(i64 1, ptr %26) #9
  call void @llvm.lifetime.end.p0(i64 4, ptr %25) #9
  br label %123

123:                                              ; preds = %110, %109
  br label %124

124:                                              ; preds = %123, %99
  %125 = load i8, ptr %14, align 1, !range !4, !noundef !5
  %126 = trunc i8 %125 to i1
  br i1 %126, label %127, label %128

127:                                              ; preds = %124
  call void @appendStringInfoString(ptr noundef %12, ptr noundef @.str.26)
  br label %129

128:                                              ; preds = %124
  store i8 1, ptr %14, align 1
  br label %129

129:                                              ; preds = %128, %127
  %130 = load ptr, ptr %22, align 8
  %131 = call i64 @strlen(ptr noundef %130) #11
  %132 = trunc i64 %131 to i32
  store i32 %132, ptr %23, align 4
  %133 = load i32, ptr %23, align 4
  %134 = load i32, ptr %11, align 4
  %135 = icmp sle i32 %133, %134
  br i1 %135, label %136, label %139

136:                                              ; preds = %129
  %137 = load ptr, ptr %22, align 8
  %138 = load i32, ptr %23, align 4
  call void @appendBinaryStringInfo(ptr noundef %12, ptr noundef %137, i32 noundef %138)
  br label %146

139:                                              ; preds = %129
  %140 = load ptr, ptr %22, align 8
  %141 = load i32, ptr %23, align 4
  %142 = load i32, ptr %11, align 4
  %143 = call i32 @pg_mbcliplen(ptr noundef %140, i32 noundef %141, i32 noundef %142)
  store i32 %143, ptr %23, align 4
  %144 = load ptr, ptr %22, align 8
  %145 = load i32, ptr %23, align 4
  call void @appendBinaryStringInfo(ptr noundef %12, ptr noundef %144, i32 noundef %145)
  call void @appendStringInfoString(ptr noundef %12, ptr noundef @.str.29)
  br label %146

146:                                              ; preds = %139, %136
  br label %147

147:                                              ; preds = %146, %90
  store i32 0, ptr %20, align 4
  br label %148

148:                                              ; preds = %147, %55
  call void @llvm.lifetime.end.p0(i64 8, ptr %24) #9
  call void @llvm.lifetime.end.p0(i64 4, ptr %23) #9
  call void @llvm.lifetime.end.p0(i64 8, ptr %22) #9
  call void @llvm.lifetime.end.p0(i64 1, ptr %21) #9
  %149 = load i32, ptr %20, align 4
  switch i32 %149, label %173 [
    i32 0, label %150
    i32 4, label %151
  ]

150:                                              ; preds = %148
  br label %151

151:                                              ; preds = %150, %148
  %152 = load i32, ptr %16, align 4
  %153 = add i32 %152, 1
  store i32 %153, ptr %16, align 4
  br label %41, !llvm.loop !24

154:                                              ; preds = %41
  %155 = load i8, ptr %19, align 1, !range !4, !noundef !5
  %156 = trunc i8 %155 to i1
  br i1 %156, label %158, label %157

157:                                              ; preds = %154
  store ptr null, ptr %6, align 8
  store i32 1, ptr %20, align 4
  br label %171

158:                                              ; preds = %154
  call void @appendStringInfoChar(ptr noundef %12, i8 noundef signext 41)
  %159 = load i8, ptr %18, align 1, !range !4, !noundef !5
  %160 = trunc i8 %159 to i1
  br i1 %160, label %168, label %161

161:                                              ; preds = %158
  call void @appendStringInfoString(ptr noundef %13, ptr noundef @.str.30)
  %162 = getelementptr inbounds nuw %struct.StringInfoData, ptr %12, i32 0, i32 0
  %163 = load ptr, ptr %162, align 8
  %164 = getelementptr inbounds nuw %struct.StringInfoData, ptr %12, i32 0, i32 1
  %165 = load i32, ptr %164, align 8
  call void @appendBinaryStringInfo(ptr noundef %13, ptr noundef %163, i32 noundef %165)
  %166 = getelementptr inbounds nuw %struct.StringInfoData, ptr %13, i32 0, i32 0
  %167 = load ptr, ptr %166, align 8
  store ptr %167, ptr %6, align 8
  store i32 1, ptr %20, align 4
  br label %171

168:                                              ; preds = %158
  %169 = getelementptr inbounds nuw %struct.StringInfoData, ptr %12, i32 0, i32 0
  %170 = load ptr, ptr %169, align 8
  store ptr %170, ptr %6, align 8
  store i32 1, ptr %20, align 4
  br label %171

171:                                              ; preds = %168, %161, %157, %30
  call void @llvm.lifetime.end.p0(i64 1, ptr %19) #9
  call void @llvm.lifetime.end.p0(i64 1, ptr %18) #9
  call void @llvm.lifetime.end.p0(i64 4, ptr %17) #9
  call void @llvm.lifetime.end.p0(i64 4, ptr %16) #9
  call void @llvm.lifetime.end.p0(i64 1, ptr %15) #9
  call void @llvm.lifetime.end.p0(i64 1, ptr %14) #9
  call void @llvm.lifetime.end.p0(i64 24, ptr %13) #9
  call void @llvm.lifetime.end.p0(i64 24, ptr %12) #9
  %172 = load ptr, ptr %6, align 8
  ret ptr %172

173:                                              ; preds = %148
  unreachable
}