; Function Attrs: nounwind uwtable
define dso_local ptr @ExecBuildSlotValueDescription(i32 noundef %0, ptr noundef %1, ptr noundef %2, ptr noundef %3, i32 noundef %4) local_unnamed_addr #0 {
  %6 = alloca %struct.StringInfoData, align 8
  %7 = alloca %struct.StringInfoData, align 8
  %8 = alloca i32, align 4
  %9 = alloca i8, align 1
  call void @llvm.lifetime.start.p0(i64 24, ptr nonnull %6) #9
  call void @llvm.lifetime.start.p0(i64 24, ptr nonnull %7) #9
  %10 = tail call i32 @check_enable_rls(i32 noundef %0, i32 noundef 0, i1 noundef zeroext true) #9
  %11 = icmp eq i32 %10, 2
  br i1 %11, label %91, label %12

12:                                               ; preds = %5
  call void @initStringInfo(ptr noundef nonnull %6) #9
  call void @appendStringInfoChar(ptr noundef nonnull %6, i8 noundef signext 40) #9
  %13 = call i32 @GetUserId() #9
  %14 = call i32 @pg_class_aclcheck(i32 noundef %0, i32 noundef %13, i64 noundef 2) #9
  %.not = icmp eq i32 %14, 0
  br i1 %.not, label %16, label %15

15:                                               ; preds = %12
  call void @initStringInfo(ptr noundef nonnull %7) #9
  call void @appendStringInfoChar(ptr noundef nonnull %7, i8 noundef signext 40) #9
  br label %16

16:                                               ; preds = %12, %15
  %.042 = phi i8 [ 0, %15 ], [ 1, %12 ]
  %17 = getelementptr inbounds nuw i8, ptr %1, i64 16
  %18 = load ptr, ptr %17, align 8
  %19 = load i32, ptr %18, align 8
  %20 = getelementptr inbounds nuw i8, ptr %1, i64 6
  %21 = load i16, ptr %20, align 2
  %22 = sext i16 %21 to i32
  %23 = icmp sgt i32 %19, %22
  br i1 %23, label %24, label %slot_getallattrs.exit

24:                                               ; preds = %16
  call void @slot_getsomeattrs_int(ptr noundef nonnull %1, i32 noundef %19) #9
  br label %slot_getallattrs.exit

slot_getallattrs.exit:                            ; preds = %16, %24
  %invariant.gep = getelementptr i8, ptr %2, i64 24
  %25 = load i32, ptr %2, align 8
  %26 = icmp sgt i32 %25, 0
  br i1 %26, label %.lr.ph, label %._crit_edge

.lr.ph:                                           ; preds = %slot_getallattrs.exit
  %27 = trunc nuw i8 %.042 to i1
  %28 = getelementptr inbounds nuw i8, ptr %1, i64 32
  %29 = getelementptr inbounds nuw i8, ptr %1, i64 24
  br label %30

30:                                               ; preds = %.lr.ph, %77
  %indvars.iv = phi i64 [ 0, %.lr.ph ], [ %indvars.iv.next, %77 ]
  %31 = phi i32 [ %25, %.lr.ph ], [ %78, %77 ]
  %.166 = phi i8 [ %.042, %.lr.ph ], [ %.2, %77 ]
  %.04564 = phi i1 [ false, %.lr.ph ], [ %.146, %77 ]
  %.04963 = phi i1 [ false, %.lr.ph ], [ %.150, %77 ]
  %32 = sext i32 %31 to i64
  %33 = shl nsw i64 %32, 4
  %gep = getelementptr i8, ptr %invariant.gep, i64 %33
  %34 = getelementptr inbounds nuw %struct.FormData_pg_attribute, ptr %gep, i64 %indvars.iv
  %35 = getelementptr inbounds nuw i8, ptr %34, i64 91
  %36 = load i8, ptr %35, align 1, !range !4, !noundef !5
  %37 = trunc nuw i8 %36 to i1
  br i1 %37, label %77, label %38

38:                                               ; preds = %30
  br i1 %27, label %.thread, label %39

39:                                               ; preds = %38
  %40 = getelementptr inbounds nuw i8, ptr %34, i64 74
  %41 = load i16, ptr %40, align 2
  %42 = call i32 @GetUserId() #9
  %43 = call i32 @pg_attribute_aclcheck(i32 noundef %0, i16 noundef signext %41, i32 noundef %42, i64 noundef 2) #9
  %44 = load i16, ptr %40, align 2
  %45 = sext i16 %44 to i32
  %46 = add nsw i32 %45, 7
  %47 = call zeroext i1 @bms_is_member(i32 noundef %46, ptr noundef %3) #9
  %48 = icmp eq i32 %43, 0
  %or.cond = select i1 %47, i1 true, i1 %48
  br i1 %or.cond, label %49, label %77

49:                                               ; preds = %39
  br i1 %.04564, label %50, label %51

50:                                               ; preds = %49
  call void @appendStringInfoString(ptr noundef nonnull %7, ptr noundef nonnull @.str.26) #9
  br label %51

51:                                               ; preds = %49, %50
  %52 = getelementptr inbounds nuw i8, ptr %34, i64 4
  call void @appendStringInfoString(ptr noundef nonnull %7, ptr noundef nonnull %52) #9
  br label %.thread

.thread:                                          ; preds = %51, %38
  %.362 = phi i8 [ 1, %51 ], [ %.166, %38 ]
  %.24761 = phi i1 [ true, %51 ], [ %.04564, %38 ]
  %53 = getelementptr inbounds nuw i8, ptr %34, i64 90
  %54 = load i8, ptr %53, align 2
  %55 = icmp eq i8 %54, 118
  br i1 %55, label %69, label %56

56:                                               ; preds = %.thread
  %57 = load ptr, ptr %28, align 8
  %58 = getelementptr inbounds nuw i8, ptr %57, i64 %indvars.iv
  %59 = load i8, ptr %58, align 1, !range !4, !noundef !5
  %60 = trunc nuw i8 %59 to i1
  br i1 %60, label %69, label %61

61:                                               ; preds = %56
  call void @llvm.lifetime.start.p0(i64 4, ptr nonnull %8) #9
  call void @llvm.lifetime.start.p0(i64 1, ptr nonnull %9) #9
  %62 = getelementptr inbounds nuw i8, ptr %34, i64 68
  %63 = load i32, ptr %62, align 4
  call void @getTypeOutputInfo(i32 noundef %63, ptr noundef nonnull %8, ptr noundef nonnull %9) #9
  %64 = load i32, ptr %8, align 4
  %65 = load ptr, ptr %29, align 8
  %66 = getelementptr inbounds nuw i64, ptr %65, i64 %indvars.iv
  %67 = load i64, ptr %66, align 8
  %68 = call ptr @OidOutputFunctionCall(i32 noundef %64, i64 noundef %67) #9
  call void @llvm.lifetime.end.p0(i64 1, ptr nonnull %9) #9
  call void @llvm.lifetime.end.p0(i64 4, ptr nonnull %8) #9
  br label %69

69:                                               ; preds = %56, %.thread, %61
  %.040 = phi ptr [ %68, %61 ], [ @.str.27, %.thread ], [ @.str.28, %56 ]
  br i1 %.04963, label %70, label %71

70:                                               ; preds = %69
  call void @appendStringInfoString(ptr noundef nonnull %6, ptr noundef nonnull @.str.26) #9
  br label %71

71:                                               ; preds = %69, %70
  %72 = call i64 @strlen(ptr noundef nonnull dereferenceable(1) %.040) #11
  %73 = trunc i64 %72 to i32
  %.not56 = icmp slt i32 %4, %73
  br i1 %.not56, label %75, label %74

74:                                               ; preds = %71
  call void @appendBinaryStringInfo(ptr noundef nonnull %6, ptr noundef nonnull %.040, i32 noundef %73) #9
  br label %77

75:                                               ; preds = %71
  %76 = call i32 @pg_mbcliplen(ptr noundef nonnull %.040, i32 noundef %73, i32 noundef %4) #9
  call void @appendBinaryStringInfo(ptr noundef nonnull %6, ptr noundef nonnull %.040, i32 noundef %76) #9
  call void @appendStringInfoString(ptr noundef nonnull %6, ptr noundef nonnull @.str.29) #9
  br label %77

77:                                               ; preds = %39, %75, %74, %30
  %.150 = phi i1 [ %.04963, %30 ], [ true, %74 ], [ true, %75 ], [ %.04963, %39 ]
  %.146 = phi i1 [ %.04564, %30 ], [ %.24761, %74 ], [ %.24761, %75 ], [ %.04564, %39 ]
  %.2 = phi i8 [ %.166, %30 ], [ %.362, %74 ], [ %.362, %75 ], [ %.166, %39 ]
  %indvars.iv.next = add nuw nsw i64 %indvars.iv, 1
  %78 = load i32, ptr %2, align 8
  %79 = sext i32 %78 to i64
  %80 = icmp slt i64 %indvars.iv.next, %79
  br i1 %80, label %30, label %._crit_edge, !llvm.loop !9

._crit_edge:                                      ; preds = %77, %slot_getallattrs.exit
  %.1.lcssa = phi i8 [ %.042, %slot_getallattrs.exit ], [ %.2, %77 ]
  %81 = trunc nuw i8 %.1.lcssa to i1
  br i1 %81, label %82, label %91

82:                                               ; preds = %._crit_edge
  call void @appendStringInfoChar(ptr noundef nonnull %6, i8 noundef signext 41) #9
  %83 = trunc nuw i8 %.042 to i1
  br i1 %83, label %89, label %84

84:                                               ; preds = %82
  call void @appendStringInfoString(ptr noundef nonnull %7, ptr noundef nonnull @.str.30) #9
  %85 = load ptr, ptr %6, align 8
  %86 = getelementptr inbounds nuw i8, ptr %6, i64 8
  %87 = load i32, ptr %86, align 8
  call void @appendBinaryStringInfo(ptr noundef nonnull %7, ptr noundef %85, i32 noundef %87) #9
  %88 = load ptr, ptr %7, align 8
  br label %91

89:                                               ; preds = %82
  %90 = load ptr, ptr %6, align 8
  br label %91

91:                                               ; preds = %._crit_edge, %5, %89, %84
  %.0 = phi ptr [ %90, %89 ], [ %88, %84 ], [ null, %5 ], [ null, %._crit_edge ]
  call void @llvm.lifetime.end.p0(i64 24, ptr nonnull %7) #9
  call void @llvm.lifetime.end.p0(i64 24, ptr nonnull %6) #9
  ret ptr %.0
}